; Function Attrs: mustprogress noreturn nounwind uwtable
define dso_local void @_ZN4llvm14MCWasmStreamer17emitAssemblerFlagENS_15MCAssemblerFlagE(ptr nocapture noundef nonnull readonly align 8 dereferenceable(425) %0, i32 noundef %1) unnamed_addr #5 align 2 {
  %3 = getelementptr inbounds nuw i8, ptr %0, i64 288
  %4 = load ptr, ptr %3, align 8
  %5 = getelementptr inbounds nuw i8, ptr %4, i64 8
  %6 = load ptr, ptr %5, align 8
  %7 = load ptr, ptr %6, align 8
  %8 = getelementptr inbounds i8, ptr %7, i64 208
  %9 = load ptr, ptr %8, align 8
  tail call void %9(ptr noundef nonnull align 8 dereferenceable(16) %6, i32 noundef %1) #12
  unreachable
}